target datalayout = "e-m:e-p270:32:32-p271:32:32-p272:64:64-i64:64-i128:128-f80:128-n8:16:32:64-S128"
target triple = "x86_64-pc-linux-gnu"

%struct.rb_vm_struct = type { i64, %struct.anon.5, ptr, i64, %struct.ccan_list_head, i32, i8, i64, ptr, [5 x i64], i64, i64, i64, i64, i64, i64, i64, i64, i64, ptr, ptr, ptr, %struct.anon.9, ptr, i32, %struct.ccan_list_head, %union.pthread_mutex_t, i64, i64, i64, i64, i32, %struct.anon.10, ptr, ptr, ptr, ptr, ptr, ptr, ptr, ptr, i64, [1023 x ptr], %struct.anon.11 }
%struct.anon.5 = type { %struct.ccan_list_head, i32, i32, ptr, ptr, %struct.anon.6, %struct.anon.8 }
%struct.anon.6 = type { %union.pthread_mutex_t, ptr, i32, %union.pthread_cond_t, i8 }
%union.pthread_cond_t = type { %struct.__pthread_cond_s }
%struct.__pthread_cond_s = type { %union.__atomic_wide_counter, %union.__atomic_wide_counter, [2 x i32], [2 x i32], i32, i32, [2 x i32] }
%union.__atomic_wide_counter = type { i64 }
%struct.anon.8 = type { %union.pthread_mutex_t, ptr, i8, %union.pthread_cond_t, i32, i32, i32, i32, %struct.ccan_list_head, i32, %struct.ccan_list_head, %struct.ccan_list_head, %struct.ccan_list_head, i8, %union.pthread_cond_t, %union.pthread_cond_t, i8, i32, i32 }
%struct.anon.9 = type { [65 x i64] }
%struct.ccan_list_head = type { %struct.ccan_list_node }
%struct.ccan_list_node = type { ptr, ptr }
%union.pthread_mutex_t = type { %struct.__pthread_mutex_s }
%struct.__pthread_mutex_s = type { i32, i32, i32, i32, i32, i16, i16, %struct.__pthread_internal_list }
%struct.__pthread_internal_list = type { ptr, ptr }
%struct.anon.10 = type { ptr, ptr }
%struct.anon.11 = type { i64, i64, i64, i64 }

@ruby_current_vm_ptr = external global ptr, align 8

; Function Attrs: nounwind sspstrong uwtable
define internal void @vm_lock_leave(ptr noundef %0, ptr noundef %1) #0 {
  %3 = alloca ptr, align 8
  %4 = alloca ptr, align 8
  store ptr %0, ptr %3, align 8, !tbaa !7
  store ptr %1, ptr %4, align 8, !tbaa !37
  %5 = load ptr, ptr %3, align 8, !tbaa !7
  %6 = getelementptr inbounds nuw %struct.rb_vm_struct, ptr %5, i32 0, i32 1
  %7 = getelementptr inbounds nuw %struct.anon.5, ptr %6, i32 0, i32 5
  %8 = getelementptr inbounds nuw %struct.anon.6, ptr %7, i32 0, i32 2
  %9 = load i32, ptr %8, align 8, !tbaa !69
  %10 = add i32 %9, -1
  store i32 %10, ptr %8, align 8, !tbaa !69
  %11 = load ptr, ptr %3, align 8, !tbaa !7
  %12 = getelementptr inbounds nuw %struct.rb_vm_struct, ptr %11, i32 0, i32 1
  %13 = getelementptr inbounds nuw %struct.anon.5, ptr %12, i32 0, i32 5
  %14 = getelementptr inbounds nuw %struct.anon.6, ptr %13, i32 0, i32 2
  %15 = load i32, ptr %14, align 8, !tbaa !69
  %16 = load ptr, ptr %4, align 8, !tbaa !37
  store i32 %15, ptr %16, align 4, !tbaa !70
  %17 = load ptr, ptr %3, align 8, !tbaa !7
  %18 = getelementptr inbounds nuw %struct.rb_vm_struct, ptr %17, i32 0, i32 1
  %19 = getelementptr inbounds nuw %struct.anon.5, ptr %18, i32 0, i32 5
  %20 = getelementptr inbounds nuw %struct.anon.6, ptr %19, i32 0, i32 2
  %21 = load i32, ptr %20, align 8, !tbaa !69
  %22 = icmp eq i32 %21, 0
  br i1 %22, label %23, label %32

23:                                               ; preds = %2
  %24 = load ptr, ptr %3, align 8, !tbaa !7
  %25 = getelementptr inbounds nuw %struct.rb_vm_struct, ptr %24, i32 0, i32 1
  %26 = getelementptr inbounds nuw %struct.anon.5, ptr %25, i32 0, i32 5
  %27 = getelementptr inbounds nuw %struct.anon.6, ptr %26, i32 0, i32 1
  store ptr null, ptr %27, align 8, !tbaa !12
  %28 = load ptr, ptr %3, align 8, !tbaa !7
  %29 = getelementptr inbounds nuw %struct.rb_vm_struct, ptr %28, i32 0, i32 1
  %30 = getelementptr inbounds nuw %struct.anon.5, ptr %29, i32 0, i32 5
  %31 = getelementptr inbounds nuw %struct.anon.6, ptr %30, i32 0, i32 0
  call void @rb_native_mutex_unlock(ptr noundef %31)
  br label %32

32:                                               ; preds = %23, %2
  ret void
}

; Function Attrs: inlinehint nounwind sspstrong uwtable
define internal ptr @rb_current_vm() #1 {
  %1 = load ptr, ptr @ruby_current_vm_ptr, align 8, !tbaa !7
  ret ptr %1
}

; Function Attrs: nounwind sspstrong uwtable
define hidden void @rb_vm_lock_leave_body(ptr noundef %0) #0 {
  %2 = alloca ptr, align 8
  store ptr %0, ptr %2, align 8, !tbaa !37
  %3 = call ptr @rb_current_vm()
  %4 = load ptr, ptr %2, align 8, !tbaa !37
  call void @vm_lock_leave(ptr noundef %3, ptr noundef %4)
  ret void
}