; Function Attrs: nounwind sspstrong uwtable
define hidden void @rb_vm_lock_leave_body(ptr noundef writeonly captures(none) initializes((0, 4)) %0) local_unnamed_addr #2 {
  %2 = load ptr, ptr @ruby_current_vm_ptr, align 8, !tbaa !7
  %3 = getelementptr inbounds nuw i8, ptr %2, i64 96
  %4 = load i32, ptr %3, align 8, !tbaa !61
  %5 = add i32 %4, -1
  store i32 %5, ptr %3, align 8, !tbaa !61
  store i32 %5, ptr %0, align 4, !tbaa !62
  %6 = load i32, ptr %3, align 8, !tbaa !61
  %7 = icmp eq i32 %6, 0
  br i1 %7, label %8, label %vm_lock_leave.exit

8:                                                ; preds = %1
  %9 = getelementptr inbounds nuw i8, ptr %2, i64 48
  %10 = getelementptr inbounds nuw i8, ptr %2, i64 88
  store ptr null, ptr %10, align 8, !tbaa !12
  tail call void @rb_native_mutex_unlock(ptr noundef nonnull %9) #7
  br label %vm_lock_leave.exit

vm_lock_leave.exit:                               ; preds = %1, %8
  ret void
}